; Function Attrs: mustprogress uwtable
define void @_ZN20SCTPGraphArwndDialog23on_pushButton_4_clickedEv(ptr noundef nonnull align 8 dereferenceable(152) %0) local_unnamed_addr #0 align 2 {
  %2 = getelementptr inbounds i8, ptr %0, i64 48
  %3 = load i16, ptr %2, align 8
  %4 = tail call noundef ptr @_ZN22SCTPAssocAnalyseDialog9findAssocEP7QWidgett(ptr noundef nonnull %0, i16 noundef zeroext %3)
  %.not = icmp eq ptr %4, null
  br i1 %.not, label %39, label %5

5:                                                ; preds = %1
  %6 = getelementptr inbounds i8, ptr %0, i64 40
  %7 = load ptr, ptr %6, align 8
  %8 = getelementptr inbounds i8, ptr %7, i64 24
  %9 = load ptr, ptr %8, align 8
  %10 = getelementptr inbounds i8, ptr %9, i64 40
  %11 = load ptr, ptr %10, align 8
  %12 = getelementptr inbounds i8, ptr %4, i64 228
  %13 = load i32, ptr %12, align 4
  %14 = uitofp i32 %13 to double
  %15 = getelementptr inbounds i8, ptr %4, i64 232
  %16 = load i32, ptr %15, align 8
  %17 = uitofp i32 %16 to double
  %18 = fdiv double %17, 1.000000e+06
  %19 = fadd double %18, %14
  %20 = getelementptr inbounds i8, ptr %4, i64 236
  %21 = load i32, ptr %20, align 4
  %22 = uitofp i32 %21 to double
  %23 = getelementptr inbounds i8, ptr %4, i64 240
  %24 = load i32, ptr %23, align 8
  %25 = uitofp i32 %24 to double
  %26 = fdiv double %25, 1.000000e+06
  %27 = fadd double %26, %22
  tail call void @_ZN7QCPAxis8setRangeEdd(ptr noundef nonnull align 8 dereferenceable(472) %11, double noundef %19, double noundef %27)
  %28 = load ptr, ptr %6, align 8
  %29 = getelementptr inbounds i8, ptr %28, i64 24
  %30 = load ptr, ptr %29, align 8
  %31 = getelementptr inbounds i8, ptr %30, i64 48
  %32 = load ptr, ptr %31, align 8
  %33 = getelementptr inbounds i8, ptr %0, i64 72
  %34 = load i32, ptr %33, align 8
  %35 = uitofp i32 %34 to double
  tail call void @_ZN7QCPAxis8setRangeEdd(ptr noundef nonnull align 8 dereferenceable(472) %32, double noundef 0.000000e+00, double noundef %35)
  %36 = load ptr, ptr %6, align 8
  %37 = getelementptr inbounds i8, ptr %36, i64 24
  %38 = load ptr, ptr %37, align 8
  tail call void @_ZN11QCustomPlot6replotENS_15RefreshPriorityE(ptr noundef nonnull align 8 dereferenceable(513) %38, i32 noundef 2)
  br label %39

39:                                               ; preds = %1, %5
  ret void
}